target datalayout = "e-m:e-p270:32:32-p271:32:32-p272:64:64-i64:64-i128:128-f80:128-n8:16:32:64-S128"
target triple = "x86_64-pc-linux-gnu"

@hf_9P_lflags_rdonly = internal global i32 0, align 4
@hf_9P_lflags_wronly = internal global i32 0, align 4
@hf_9P_lflags_rdwr = internal global i32 0, align 4
@hf_9P_lflags_create = internal global i32 0, align 4
@hf_9P_lflags_excl = internal global i32 0, align 4
@hf_9P_lflags_noctty = internal global i32 0, align 4
@hf_9P_lflags_trunc = internal global i32 0, align 4
@hf_9P_lflags_append = internal global i32 0, align 4
@hf_9P_lflags_nonblock = internal global i32 0, align 4
@hf_9P_lflags_dsync = internal global i32 0, align 4
@hf_9P_lflags_fasync = internal global i32 0, align 4
@hf_9P_lflags_direct = internal global i32 0, align 4
@hf_9P_lflags_largefile = internal global i32 0, align 4
@hf_9P_lflags_directory = internal global i32 0, align 4
@hf_9P_lflags_nofollow = internal global i32 0, align 4
@hf_9P_lflags_noatime = internal global i32 0, align 4
@hf_9P_lflags_cloexec = internal global i32 0, align 4
@hf_9P_lflags_sync = internal global i32 0, align 4
@ett_9P_lflags = internal global i32 0, align 4

; Function Attrs: null_pointer_is_valid sspstrong uwtable
define internal void @dissect_9P_lflags(ptr noundef %0, ptr noundef %1, i32 noundef %2) #0 {
  %4 = alloca ptr, align 8
  %5 = alloca ptr, align 8
  %6 = alloca i32, align 4
  %7 = alloca ptr, align 8
  %8 = alloca i32, align 4
  store ptr %0, ptr %4, align 8
  store ptr %1, ptr %5, align 8
  store i32 %2, ptr %6, align 4
  call void @llvm.lifetime.start.p0(i64 8, ptr %7) #7
  %9 = load ptr, ptr %5, align 8
  %10 = load i32, ptr @ett_9P_lflags, align 4
  %11 = call ptr @proto_item_add_subtree(ptr noundef %9, i32 noundef %10)
  store ptr %11, ptr %7, align 8
  %12 = load ptr, ptr %7, align 8
  %13 = icmp ne ptr %12, null
  br i1 %13, label %15, label %14

14:                                               ; preds = %3
  store i32 1, ptr %8, align 4
  br label %106

15:                                               ; preds = %3
  %16 = load ptr, ptr %7, align 8
  %17 = load i32, ptr @hf_9P_lflags_rdonly, align 4
  %18 = load ptr, ptr %4, align 8
  %19 = load i32, ptr %6, align 4
  %20 = call ptr @proto_tree_add_item(ptr noundef %16, i32 noundef %17, ptr noundef %18, i32 noundef %19, i32 noundef 4, i32 noundef -2147483648)
  %21 = load ptr, ptr %7, align 8
  %22 = load i32, ptr @hf_9P_lflags_wronly, align 4
  %23 = load ptr, ptr %4, align 8
  %24 = load i32, ptr %6, align 4
  %25 = call ptr @proto_tree_add_item(ptr noundef %21, i32 noundef %22, ptr noundef %23, i32 noundef %24, i32 noundef 4, i32 noundef -2147483648)
  %26 = load ptr, ptr %7, align 8
  %27 = load i32, ptr @hf_9P_lflags_rdwr, align 4
  %28 = load ptr, ptr %4, align 8
  %29 = load i32, ptr %6, align 4
  %30 = call ptr @proto_tree_add_item(ptr noundef %26, i32 noundef %27, ptr noundef %28, i32 noundef %29, i32 noundef 4, i32 noundef -2147483648)
  %31 = load ptr, ptr %7, align 8
  %32 = load i32, ptr @hf_9P_lflags_create, align 4
  %33 = load ptr, ptr %4, align 8
  %34 = load i32, ptr %6, align 4
  %35 = call ptr @proto_tree_add_item(ptr noundef %31, i32 noundef %32, ptr noundef %33, i32 noundef %34, i32 noundef 4, i32 noundef -2147483648)
  %36 = load ptr, ptr %7, align 8
  %37 = load i32, ptr @hf_9P_lflags_excl, align 4
  %38 = load ptr, ptr %4, align 8
  %39 = load i32, ptr %6, align 4
  %40 = call ptr @proto_tree_add_item(ptr noundef %36, i32 noundef %37, ptr noundef %38, i32 noundef %39, i32 noundef 4, i32 noundef -2147483648)
  %41 = load ptr, ptr %7, align 8
  %42 = load i32, ptr @hf_9P_lflags_noctty, align 4
  %43 = load ptr, ptr %4, align 8
  %44 = load i32, ptr %6, align 4
  %45 = call ptr @proto_tree_add_item(ptr noundef %41, i32 noundef %42, ptr noundef %43, i32 noundef %44, i32 noundef 4, i32 noundef -2147483648)
  %46 = load ptr, ptr %7, align 8
  %47 = load i32, ptr @hf_9P_lflags_trunc, align 4
  %48 = load ptr, ptr %4, align 8
  %49 = load i32, ptr %6, align 4
  %50 = call ptr @proto_tree_add_item(ptr noundef %46, i32 noundef %47, ptr noundef %48, i32 noundef %49, i32 noundef 4, i32 noundef -2147483648)
  %51 = load ptr, ptr %7, align 8
  %52 = load i32, ptr @hf_9P_lflags_append, align 4
  %53 = load ptr, ptr %4, align 8
  %54 = load i32, ptr %6, align 4
  %55 = call ptr @proto_tree_add_item(ptr noundef %51, i32 noundef %52, ptr noundef %53, i32 noundef %54, i32 noundef 4, i32 noundef -2147483648)
  %56 = load ptr, ptr %7, align 8
  %57 = load i32, ptr @hf_9P_lflags_nonblock, align 4
  %58 = load ptr, ptr %4, align 8
  %59 = load i32, ptr %6, align 4
  %60 = call ptr @proto_tree_add_item(ptr noundef %56, i32 noundef %57, ptr noundef %58, i32 noundef %59, i32 noundef 4, i32 noundef -2147483648)
  %61 = load ptr, ptr %7, align 8
  %62 = load i32, ptr @hf_9P_lflags_dsync, align 4
  %63 = load ptr, ptr %4, align 8
  %64 = load i32, ptr %6, align 4
  %65 = call ptr @proto_tree_add_item(ptr noundef %61, i32 noundef %62, ptr noundef %63, i32 noundef %64, i32 noundef 4, i32 noundef -2147483648)
  %66 = load ptr, ptr %7, align 8
  %67 = load i32, ptr @hf_9P_lflags_fasync, align 4
  %68 = load ptr, ptr %4, align 8
  %69 = load i32, ptr %6, align 4
  %70 = call ptr @proto_tree_add_item(ptr noundef %66, i32 noundef %67, ptr noundef %68, i32 noundef %69, i32 noundef 4, i32 noundef -2147483648)
  %71 = load ptr, ptr %7, align 8
  %72 = load i32, ptr @hf_9P_lflags_direct, align 4
  %73 = load ptr, ptr %4, align 8
  %74 = load i32, ptr %6, align 4
  %75 = call ptr @proto_tree_add_item(ptr noundef %71, i32 noundef %72, ptr noundef %73, i32 noundef %74, i32 noundef 4, i32 noundef -2147483648)
  %76 = load ptr, ptr %7, align 8
  %77 = load i32, ptr @hf_9P_lflags_largefile, align 4
  %78 = load ptr, ptr %4, align 8
  %79 = load i32, ptr %6, align 4
  %80 = call ptr @proto_tree_add_item(ptr noundef %76, i32 noundef %77, ptr noundef %78, i32 noundef %79, i32 noundef 4, i32 noundef -2147483648)
  %81 = load ptr, ptr %7, align 8
  %82 = load i32, ptr @hf_9P_lflags_directory, align 4
  %83 = load ptr, ptr %4, align 8
  %84 = load i32, ptr %6, align 4
  %85 = call ptr @proto_tree_add_item(ptr noundef %81, i32 noundef %82, ptr noundef %83, i32 noundef %84, i32 noundef 4, i32 noundef -2147483648)
  %86 = load ptr, ptr %7, align 8
  %87 = load i32, ptr @hf_9P_lflags_nofollow, align 4
  %88 = load ptr, ptr %4, align 8
  %89 = load i32, ptr %6, align 4
  %90 = call ptr @proto_tree_add_item(ptr noundef %86, i32 noundef %87, ptr noundef %88, i32 noundef %89, i32 noundef 4, i32 noundef -2147483648)
  %91 = load ptr, ptr %7, align 8
  %92 = load i32, ptr @hf_9P_lflags_noatime, align 4
  %93 = load ptr, ptr %4, align 8
  %94 = load i32, ptr %6, align 4
  %95 = call ptr @proto_tree_add_item(ptr noundef %91, i32 noundef %92, ptr noundef %93, i32 noundef %94, i32 noundef 4, i32 noundef -2147483648)
  %96 = load ptr, ptr %7, align 8
  %97 = load i32, ptr @hf_9P_lflags_cloexec, align 4
  %98 = load ptr, ptr %4, align 8
  %99 = load i32, ptr %6, align 4
  %100 = call ptr @proto_tree_add_item(ptr noundef %96, i32 noundef %97, ptr noundef %98, i32 noundef %99, i32 noundef 4, i32 noundef -2147483648)
  %101 = load ptr, ptr %7, align 8
  %102 = load i32, ptr @hf_9P_lflags_sync, align 4
  %103 = load ptr, ptr %4, align 8
  %104 = load i32, ptr %6, align 4
  %105 = call ptr @proto_tree_add_item(ptr noundef %101, i32 noundef %102, ptr noundef %103, i32 noundef %104, i32 noundef 4, i32 noundef -2147483648)
  store i32 0, ptr %8, align 4
  br label %106

106:                                              ; preds = %15, %14
  call void @llvm.lifetime.end.p0(i64 8, ptr %7) #7
  %107 = load i32, ptr %8, align 4
  switch i32 %107, label %109 [
    i32 0, label %108
    i32 1, label %108
  ]

108:                                              ; preds = %106, %106
  ret void

109:                                              ; preds = %106
  unreachable
}