; Function Attrs: null_pointer_is_valid sspstrong uwtable
define internal fastcc void @dissect_9P_lflags(ptr noundef %0, ptr noundef %1, i32 noundef range(i32 11, 65549) %2) unnamed_addr #0 {
  %4 = load i32, ptr @ett_9P_lflags, align 4
  %5 = tail call ptr @proto_item_add_subtree(ptr noundef %1, i32 noundef %4)
  %.not = icmp eq ptr %5, null
  br i1 %.not, label %43, label %6

6:                                                ; preds = %3
  %7 = load i32, ptr @hf_9P_lflags_rdonly, align 4
  %8 = tail call ptr @proto_tree_add_item(ptr noundef nonnull %5, i32 noundef %7, ptr noundef %0, i32 noundef %2, i32 noundef 4, i32 noundef -2147483648)
  %9 = load i32, ptr @hf_9P_lflags_wronly, align 4
  %10 = tail call ptr @proto_tree_add_item(ptr noundef nonnull %5, i32 noundef %9, ptr noundef %0, i32 noundef %2, i32 noundef 4, i32 noundef -2147483648)
  %11 = load i32, ptr @hf_9P_lflags_rdwr, align 4
  %12 = tail call ptr @proto_tree_add_item(ptr noundef nonnull %5, i32 noundef %11, ptr noundef %0, i32 noundef %2, i32 noundef 4, i32 noundef -2147483648)
  %13 = load i32, ptr @hf_9P_lflags_create, align 4
  %14 = tail call ptr @proto_tree_add_item(ptr noundef nonnull %5, i32 noundef %13, ptr noundef %0, i32 noundef %2, i32 noundef 4, i32 noundef -2147483648)
  %15 = load i32, ptr @hf_9P_lflags_excl, align 4
  %16 = tail call ptr @proto_tree_add_item(ptr noundef nonnull %5, i32 noundef %15, ptr noundef %0, i32 noundef %2, i32 noundef 4, i32 noundef -2147483648)
  %17 = load i32, ptr @hf_9P_lflags_noctty, align 4
  %18 = tail call ptr @proto_tree_add_item(ptr noundef nonnull %5, i32 noundef %17, ptr noundef %0, i32 noundef %2, i32 noundef 4, i32 noundef -2147483648)
  %19 = load i32, ptr @hf_9P_lflags_trunc, align 4
  %20 = tail call ptr @proto_tree_add_item(ptr noundef nonnull %5, i32 noundef %19, ptr noundef %0, i32 noundef %2, i32 noundef 4, i32 noundef -2147483648)
  %21 = load i32, ptr @hf_9P_lflags_append, align 4
  %22 = tail call ptr @proto_tree_add_item(ptr noundef nonnull %5, i32 noundef %21, ptr noundef %0, i32 noundef %2, i32 noundef 4, i32 noundef -2147483648)
  %23 = load i32, ptr @hf_9P_lflags_nonblock, align 4
  %24 = tail call ptr @proto_tree_add_item(ptr noundef nonnull %5, i32 noundef %23, ptr noundef %0, i32 noundef %2, i32 noundef 4, i32 noundef -2147483648)
  %25 = load i32, ptr @hf_9P_lflags_dsync, align 4
  %26 = tail call ptr @proto_tree_add_item(ptr noundef nonnull %5, i32 noundef %25, ptr noundef %0, i32 noundef %2, i32 noundef 4, i32 noundef -2147483648)
  %27 = load i32, ptr @hf_9P_lflags_fasync, align 4
  %28 = tail call ptr @proto_tree_add_item(ptr noundef nonnull %5, i32 noundef %27, ptr noundef %0, i32 noundef %2, i32 noundef 4, i32 noundef -2147483648)
  %29 = load i32, ptr @hf_9P_lflags_direct, align 4
  %30 = tail call ptr @proto_tree_add_item(ptr noundef nonnull %5, i32 noundef %29, ptr noundef %0, i32 noundef %2, i32 noundef 4, i32 noundef -2147483648)
  %31 = load i32, ptr @hf_9P_lflags_largefile, align 4
  %32 = tail call ptr @proto_tree_add_item(ptr noundef nonnull %5, i32 noundef %31, ptr noundef %0, i32 noundef %2, i32 noundef 4, i32 noundef -2147483648)
  %33 = load i32, ptr @hf_9P_lflags_directory, align 4
  %34 = tail call ptr @proto_tree_add_item(ptr noundef nonnull %5, i32 noundef %33, ptr noundef %0, i32 noundef %2, i32 noundef 4, i32 noundef -2147483648)
  %35 = load i32, ptr @hf_9P_lflags_nofollow, align 4
  %36 = tail call ptr @proto_tree_add_item(ptr noundef nonnull %5, i32 noundef %35, ptr noundef %0, i32 noundef %2, i32 noundef 4, i32 noundef -2147483648)
  %37 = load i32, ptr @hf_9P_lflags_noatime, align 4
  %38 = tail call ptr @proto_tree_add_item(ptr noundef nonnull %5, i32 noundef %37, ptr noundef %0, i32 noundef %2, i32 noundef 4, i32 noundef -2147483648)
  %39 = load i32, ptr @hf_9P_lflags_cloexec, align 4
  %40 = tail call ptr @proto_tree_add_item(ptr noundef nonnull %5, i32 noundef %39, ptr noundef %0, i32 noundef %2, i32 noundef 4, i32 noundef -2147483648)
  %41 = load i32, ptr @hf_9P_lflags_sync, align 4
  %42 = tail call ptr @proto_tree_add_item(ptr noundef nonnull %5, i32 noundef %41, ptr noundef %0, i32 noundef %2, i32 noundef 4, i32 noundef -2147483648)
  br label %43

43:                                               ; preds = %3, %6
  ret void
}